target datalayout = "e-m:e-p270:32:32-p271:32:32-p272:64:64-i64:64-i128:128-f80:128-n8:16:32:64-S128"
target triple = "x86_64-pc-linux-gnu"

%struct.strbuf = type { i64, i64, ptr }
%struct.passwd = type { ptr, ptr, i32, i32, ptr, ptr, ptr }

@__const.interpolate_path.user_path = private unnamed_addr constant %struct.strbuf { i64 0, i64 0, ptr @strbuf_slopbuf }, align 8
@.str.3 = private unnamed_addr constant [11 x i8] c"%(prefix)/\00", align 1
@.str.4 = private unnamed_addr constant [5 x i8] c"HOME\00", align 1

; Function Attrs: nounwind uwtable
define internal ptr @getpw_str(ptr noundef %0, i64 noundef %1) #0 {
  %3 = alloca ptr, align 8
  %4 = alloca i64, align 8
  %5 = alloca ptr, align 8
  %6 = alloca ptr, align 8
  store ptr %0, ptr %3, align 8, !tbaa !43
  store i64 %1, ptr %4, align 8, !tbaa !11
  call void @llvm.lifetime.start.p0(i64 8, ptr %5) #12
  call void @llvm.lifetime.start.p0(i64 8, ptr %6) #12
  %7 = load ptr, ptr %3, align 8, !tbaa !43
  %8 = load i64, ptr %4, align 8, !tbaa !11
  %9 = call ptr @xmemdupz(ptr noundef %7, i64 noundef %8)
  store ptr %9, ptr %6, align 8, !tbaa !43
  %10 = load ptr, ptr %6, align 8, !tbaa !43
  %11 = call ptr @getpwnam(ptr noundef %10)
  store ptr %11, ptr %5, align 8, !tbaa !78
  %12 = load ptr, ptr %6, align 8, !tbaa !43
  call void @free(ptr noundef %12) #12
  %13 = load ptr, ptr %5, align 8, !tbaa !78
  call void @llvm.lifetime.end.p0(i64 8, ptr %6) #12
  call void @llvm.lifetime.end.p0(i64 8, ptr %5) #12
  ret ptr %13
}

; Function Attrs: inlinehint nounwind uwtable
define internal void @strbuf_addstr(ptr noundef %0, ptr noundef %1) #2 {
  %3 = alloca ptr, align 8
  %4 = alloca ptr, align 8
  store ptr %0, ptr %3, align 8, !tbaa !8
  store ptr %1, ptr %4, align 8, !tbaa !43
  %5 = load ptr, ptr %3, align 8, !tbaa !8
  %6 = load ptr, ptr %4, align 8, !tbaa !43
  %7 = load ptr, ptr %4, align 8, !tbaa !43
  %8 = call i64 @strlen(ptr noundef %7) #14
  call void @strbuf_add(ptr noundef %5, ptr noundef %6, i64 noundef %8)
  ret void
}

; Function Attrs: inlinehint nounwind uwtable
define internal zeroext i1 @skip_prefix(ptr noundef %0, ptr noundef %1, ptr noundef %2) #2 {
  %4 = alloca i1, align 1
  %5 = alloca ptr, align 8
  %6 = alloca ptr, align 8
  %7 = alloca ptr, align 8
  store ptr %0, ptr %5, align 8, !tbaa !43
  store ptr %1, ptr %6, align 8, !tbaa !43
  store ptr %2, ptr %7, align 8, !tbaa !82
  br label %8

8:                                                ; preds = %16, %3
  %9 = load ptr, ptr %6, align 8, !tbaa !43
  %10 = load i8, ptr %9, align 1, !tbaa !18
  %11 = icmp ne i8 %10, 0
  br i1 %11, label %15, label %12

12:                                               ; preds = %8
  %13 = load ptr, ptr %5, align 8, !tbaa !43
  %14 = load ptr, ptr %7, align 8, !tbaa !82
  store ptr %13, ptr %14, align 8, !tbaa !43
  store i1 true, ptr %4, align 1
  br label %27

15:                                               ; preds = %8
  br label %16

16:                                               ; preds = %15
  %17 = load ptr, ptr %5, align 8, !tbaa !43
  %18 = getelementptr inbounds nuw i8, ptr %17, i32 1
  store ptr %18, ptr %5, align 8, !tbaa !43
  %19 = load i8, ptr %17, align 1, !tbaa !18
  %20 = sext i8 %19 to i32
  %21 = load ptr, ptr %6, align 8, !tbaa !43
  %22 = getelementptr inbounds nuw i8, ptr %21, i32 1
  store ptr %22, ptr %6, align 8, !tbaa !43
  %23 = load i8, ptr %21, align 1, !tbaa !18
  %24 = sext i8 %23 to i32
  %25 = icmp eq i32 %20, %24
  br i1 %25, label %8, label %26, !llvm.loop !84

26:                                               ; preds = %16
  store i1 false, ptr %4, align 1
  br label %27

27:                                               ; preds = %26, %12
  %28 = load i1, ptr %4, align 1
  ret i1 %28
}

; Function Attrs: nounwind uwtable
define dso_local ptr @interpolate_path(ptr noundef %0, i32 noundef %1) #0 {
  %3 = alloca ptr, align 8
  %4 = alloca ptr, align 8
  %5 = alloca i32, align 4
  %6 = alloca %struct.strbuf, align 8
  %7 = alloca ptr, align 8
  %8 = alloca i32, align 4
  %9 = alloca ptr, align 8
  %10 = alloca ptr, align 8
  %11 = alloca i64, align 8
  %12 = alloca ptr, align 8
  %13 = alloca ptr, align 8
  store ptr %0, ptr %4, align 8, !tbaa !43
  store i32 %1, ptr %5, align 4, !tbaa !4
  call void @llvm.lifetime.start.p0(i64 24, ptr %6) #12
  call void @llvm.memcpy.p0.p0.i64(ptr align 8 %6, ptr align 8 @__const.interpolate_path.user_path, i64 24, i1 false)
  call void @llvm.lifetime.start.p0(i64 8, ptr %7) #12
  %14 = load ptr, ptr %4, align 8, !tbaa !43
  store ptr %14, ptr %7, align 8, !tbaa !43
  %15 = load ptr, ptr %4, align 8, !tbaa !43
  %16 = icmp ne ptr %15, null
  br i1 %16, label %18, label %17

17:                                               ; preds = %2
  br label %80

18:                                               ; preds = %2
  %19 = load ptr, ptr %4, align 8, !tbaa !43
  %20 = call zeroext i1 @skip_prefix(ptr noundef %19, ptr noundef @.str.3, ptr noundef %4)
  br i1 %20, label %21, label %24

21:                                               ; preds = %18
  %22 = load ptr, ptr %4, align 8, !tbaa !43
  %23 = call ptr @system_path(ptr noundef %22)
  store ptr %23, ptr %3, align 8
  store i32 1, ptr %8, align 4
  br label %81

24:                                               ; preds = %18
  %25 = load ptr, ptr %4, align 8, !tbaa !43
  %26 = getelementptr inbounds i8, ptr %25, i64 0
  %27 = load i8, ptr %26, align 1, !tbaa !18
  %28 = sext i8 %27 to i32
  %29 = icmp eq i32 %28, 126
  br i1 %29, label %30, label %77

30:                                               ; preds = %24
  call void @llvm.lifetime.start.p0(i64 8, ptr %9) #12
  %31 = load ptr, ptr %4, align 8, !tbaa !43
  %32 = call ptr @strchrnul(ptr noundef %31, i32 noundef 47) #14
  store ptr %32, ptr %9, align 8, !tbaa !43
  call void @llvm.lifetime.start.p0(i64 8, ptr %10) #12
  %33 = load ptr, ptr %4, align 8, !tbaa !43
  %34 = getelementptr inbounds i8, ptr %33, i64 1
  store ptr %34, ptr %10, align 8, !tbaa !43
  call void @llvm.lifetime.start.p0(i64 8, ptr %11) #12
  %35 = load ptr, ptr %9, align 8, !tbaa !43
  %36 = load ptr, ptr %10, align 8, !tbaa !43
  %37 = ptrtoint ptr %35 to i64
  %38 = ptrtoint ptr %36 to i64
  %39 = sub i64 %37, %38
  store i64 %39, ptr %11, align 8, !tbaa !11
  %40 = load i64, ptr %11, align 8, !tbaa !11
  %41 = icmp eq i64 %40, 0
  br i1 %41, label %42, label %58

42:                                               ; preds = %30
  call void @llvm.lifetime.start.p0(i64 8, ptr %12) #12
  %43 = call ptr @getenv(ptr noundef @.str.4) #12
  store ptr %43, ptr %12, align 8, !tbaa !43
  %44 = load ptr, ptr %12, align 8, !tbaa !43
  %45 = icmp ne ptr %44, null
  br i1 %45, label %47, label %46

46:                                               ; preds = %42
  store i32 2, ptr %8, align 4
  br label %55

47:                                               ; preds = %42
  %48 = load i32, ptr %5, align 4, !tbaa !4
  %49 = icmp ne i32 %48, 0
  br i1 %49, label %50, label %52

50:                                               ; preds = %47
  %51 = load ptr, ptr %12, align 8, !tbaa !43
  call void @strbuf_add_real_path(ptr noundef %6, ptr noundef %51)
  br label %54

52:                                               ; preds = %47
  %53 = load ptr, ptr %12, align 8, !tbaa !43
  call void @strbuf_addstr(ptr noundef %6, ptr noundef %53)
  br label %54

54:                                               ; preds = %52, %50
  store i32 0, ptr %8, align 4
  br label %55

55:                                               ; preds = %46, %54
  call void @llvm.lifetime.end.p0(i64 8, ptr %12) #12
  %56 = load i32, ptr %8, align 4
  switch i32 %56, label %74 [
    i32 0, label %57
  ]

57:                                               ; preds = %55
  br label %72

58:                                               ; preds = %30
  call void @llvm.lifetime.start.p0(i64 8, ptr %13) #12
  %59 = load ptr, ptr %10, align 8, !tbaa !43
  %60 = load i64, ptr %11, align 8, !tbaa !11
  %61 = call ptr @getpw_str(ptr noundef %59, i64 noundef %60)
  store ptr %61, ptr %13, align 8, !tbaa !78
  %62 = load ptr, ptr %13, align 8, !tbaa !78
  %63 = icmp ne ptr %62, null
  br i1 %63, label %65, label %64

64:                                               ; preds = %58
  store i32 2, ptr %8, align 4
  br label %69

65:                                               ; preds = %58
  %66 = load ptr, ptr %13, align 8, !tbaa !78
  %67 = getelementptr inbounds nuw %struct.passwd, ptr %66, i32 0, i32 5
  %68 = load ptr, ptr %67, align 8, !tbaa !80
  call void @strbuf_addstr(ptr noundef %6, ptr noundef %68)
  store i32 0, ptr %8, align 4
  br label %69

69:                                               ; preds = %64, %65
  call void @llvm.lifetime.end.p0(i64 8, ptr %13) #12
  %70 = load i32, ptr %8, align 4
  switch i32 %70, label %74 [
    i32 0, label %71
  ]

71:                                               ; preds = %69
  br label %72

72:                                               ; preds = %71, %57
  %73 = load ptr, ptr %9, align 8, !tbaa !43
  store ptr %73, ptr %7, align 8, !tbaa !43
  store i32 0, ptr %8, align 4
  br label %74

74:                                               ; preds = %72, %69, %55
  call void @llvm.lifetime.end.p0(i64 8, ptr %11) #12
  call void @llvm.lifetime.end.p0(i64 8, ptr %10) #12
  call void @llvm.lifetime.end.p0(i64 8, ptr %9) #12
  %75 = load i32, ptr %8, align 4
  switch i32 %75, label %81 [
    i32 0, label %76
    i32 2, label %80
  ]

76:                                               ; preds = %74
  br label %77

77:                                               ; preds = %76, %24
  %78 = load ptr, ptr %7, align 8, !tbaa !43
  call void @strbuf_addstr(ptr noundef %6, ptr noundef %78)
  %79 = call ptr @strbuf_detach(ptr noundef %6, ptr noundef null)
  store ptr %79, ptr %3, align 8
  store i32 1, ptr %8, align 4
  br label %81

80:                                               ; preds = %74, %17
  call void @strbuf_release(ptr noundef %6)
  store ptr null, ptr %3, align 8
  store i32 1, ptr %8, align 4
  br label %81

81:                                               ; preds = %80, %77, %74, %21
  call void @llvm.lifetime.end.p0(i64 8, ptr %7) #12
  call void @llvm.lifetime.end.p0(i64 24, ptr %6) #12
  %82 = load ptr, ptr %3, align 8
  ret ptr %82
}