; Function Attrs: nounwind uwtable
define dso_local ptr @interpolate_path(ptr noundef %0, i32 noundef %1) local_unnamed_addr #3 {
  %3 = alloca %struct.strbuf, align 8
  call void @llvm.lifetime.start.p0(i64 24, ptr nonnull %3) #29
  call void @llvm.memcpy.p0.p0.i64(ptr noundef nonnull align 8 dereferenceable(24) %3, ptr noundef nonnull align 8 dereferenceable(24) @__const.do_submodule_path.git_submodule_dir, i64 24, i1 false)
  %.not = icmp eq ptr %0, null
  br i1 %.not, label %.thread32, label %.preheader.preheader

.preheader.preheader:                             ; preds = %2
  %scevgep = getelementptr i8, ptr %0, i64 10
  br label %.preheader

.preheader:                                       ; preds = %.preheader.preheader, %4
  %.07.i = phi ptr [ %6, %4 ], [ %0, %.preheader.preheader ]
  %.06.i.idx = phi i64 [ %.06.i.add, %4 ], [ 0, %.preheader.preheader ]
  %exitcond = icmp eq i64 %.06.i.idx, 10
  br i1 %exitcond, label %9, label %4

4:                                                ; preds = %.preheader
  %.06.i.ptr = getelementptr inbounds nuw i8, ptr @.str.3, i64 %.06.i.idx
  %5 = load i8, ptr %.06.i.ptr, align 1, !tbaa !14
  %6 = getelementptr inbounds nuw i8, ptr %.07.i, i64 1
  %7 = load i8, ptr %.07.i, align 1, !tbaa !14
  %.06.i.add = add nuw nsw i64 %.06.i.idx, 1
  %8 = icmp eq i8 %7, %5
  br i1 %8, label %.preheader, label %skip_prefix.exit, !llvm.loop !66

9:                                                ; preds = %.preheader
  %10 = tail call ptr @system_path(ptr noundef nonnull %scevgep) #29
  br label %35

skip_prefix.exit:                                 ; preds = %4
  %11 = load i8, ptr %0, align 1, !tbaa !14
  %12 = icmp eq i8 %11, 126
  br i1 %12, label %13, label %.thread35

13:                                               ; preds = %skip_prefix.exit
  %14 = tail call ptr @strchrnul(ptr noundef nonnull %0, i32 noundef 47) #30
  %15 = getelementptr inbounds nuw i8, ptr %0, i64 1
  %16 = icmp eq ptr %14, %15
  br i1 %16, label %17, label %23

17:                                               ; preds = %13
  %18 = tail call ptr @getenv(ptr noundef nonnull @.str.4) #29
  %.not25.not = icmp eq ptr %18, null
  br i1 %.not25.not, label %.thread32, label %19

19:                                               ; preds = %17
  %.not26 = icmp eq i32 %1, 0
  br i1 %.not26, label %21, label %20

20:                                               ; preds = %19
  call void @strbuf_add_real_path(ptr noundef nonnull %3, ptr noundef nonnull %18) #29
  br label %.thread35

21:                                               ; preds = %19
  %22 = tail call i64 @strlen(ptr noundef nonnull dereferenceable(1) %18) #30
  call void @strbuf_add(ptr noundef nonnull %3, ptr noundef nonnull %18, i64 noundef %22) #29
  br label %.thread35

23:                                               ; preds = %13
  %24 = ptrtoint ptr %15 to i64
  %25 = ptrtoint ptr %14 to i64
  %26 = sub i64 %25, %24
  %27 = tail call ptr @xmemdupz(ptr noundef nonnull %15, i64 noundef range(i64 1, 0) %26) #29
  %28 = tail call noundef ptr @getpwnam(ptr noundef %27)
  tail call void @free(ptr noundef %27) #29
  %.not24.not = icmp eq ptr %28, null
  br i1 %.not24.not, label %.thread32, label %29

29:                                               ; preds = %23
  %30 = getelementptr inbounds nuw i8, ptr %28, i64 32
  %31 = load ptr, ptr %30, align 8, !tbaa !70
  %32 = tail call i64 @strlen(ptr noundef nonnull dereferenceable(1) %31) #30
  call void @strbuf_add(ptr noundef nonnull %3, ptr noundef nonnull %31, i64 noundef %32) #29
  br label %.thread35

.thread35:                                        ; preds = %21, %20, %29, %skip_prefix.exit
  %.017 = phi ptr [ %0, %skip_prefix.exit ], [ %14, %29 ], [ %14, %20 ], [ %14, %21 ]
  %33 = call i64 @strlen(ptr noundef nonnull dereferenceable(1) %.017) #30
  call void @strbuf_add(ptr noundef nonnull %3, ptr noundef nonnull %.017, i64 noundef %33) #29
  %34 = call ptr @strbuf_detach(ptr noundef nonnull %3, ptr noundef null) #29
  br label %35

.thread32:                                        ; preds = %23, %17, %2
  call void @strbuf_release(ptr noundef nonnull %3) #29
  br label %35

35:                                               ; preds = %.thread32, %.thread35, %9
  %.0 = phi ptr [ %10, %9 ], [ null, %.thread32 ], [ %34, %.thread35 ]
  call void @llvm.lifetime.end.p0(i64 24, ptr nonnull %3) #29
  ret ptr %.0
}